target datalayout = "e-m:e-p270:32:32-p271:32:32-p272:64:64-i64:64-i128:128-f80:128-n8:16:32:64-S128"
target triple = "x86_64-pc-linux-gnu"

%struct.ggml_tensor = type { i32, ptr, [4 x i64], [4 x i64], i32, [16 x i32], i32, [10 x ptr], ptr, i64, ptr, [64 x i8], ptr, [8 x i8] }

@.str = private unnamed_addr constant [136 x i8] c"generated/home/dtcxzyw/WorkSpace/Projects/compilers/llvm-opt-benchmark/bench/llama.cpp/llama.cpp/ggml/src/ggml-cpu/ggml-cpu-aarch64.cpp\00", align 1
@.str.1 = private unnamed_addr constant [23 x i8] c"GGML_ASSERT(%s) failed\00", align 1
@.str.36 = private unnamed_addr constant [12 x i8] c"offset == 0\00", align 1
@.str.37 = private unnamed_addr constant [28 x i8] c"size == ggml_nbytes(tensor)\00", align 1
@.str.38 = private unnamed_addr constant [8 x i8] c"OK == 0\00", align 1

; Function Attrs: mustprogress uwtable
define internal void @_ZL42ggml_backend_cpu_aarch64_buffer_set_tensorP19ggml_backend_bufferP11ggml_tensorPKvmm(ptr noundef %0, ptr noundef %1, ptr noundef %2, i64 noundef %3, i64 noundef %4) #0 {
  %6 = alloca ptr, align 8
  %7 = alloca ptr, align 8
  %8 = alloca ptr, align 8
  %9 = alloca i64, align 8
  %10 = alloca i64, align 8
  %11 = alloca ptr, align 8
  %12 = alloca i32, align 4
  store ptr %0, ptr %6, align 8, !tbaa !248
  store ptr %1, ptr %7, align 8, !tbaa !4
  store ptr %2, ptr %8, align 8, !tbaa !9
  store i64 %3, ptr %9, align 8, !tbaa !10
  store i64 %4, ptr %10, align 8, !tbaa !10
  %13 = load i64, ptr %9, align 8, !tbaa !10
  %14 = icmp eq i64 %13, 0
  br i1 %14, label %16, label %15

15:                                               ; preds = %5
  call void (ptr, i32, ptr, ...) @ggml_abort(ptr noundef @.str, i32 noundef 4146, ptr noundef @.str.1, ptr noundef @.str.36) #29
  unreachable

16:                                               ; preds = %5
  %17 = load i64, ptr %10, align 8, !tbaa !10
  %18 = load ptr, ptr %7, align 8, !tbaa !4
  %19 = call i64 @ggml_nbytes(ptr noundef %18)
  %20 = icmp eq i64 %17, %19
  br i1 %20, label %22, label %21

21:                                               ; preds = %16
  call void (ptr, i32, ptr, ...) @ggml_abort(ptr noundef @.str, i32 noundef 4147, ptr noundef @.str.1, ptr noundef @.str.37) #29
  unreachable

22:                                               ; preds = %16
  call void @llvm.lifetime.start.p0(i64 8, ptr %11) #23
  %23 = load ptr, ptr %7, align 8, !tbaa !4
  %24 = getelementptr inbounds nuw %struct.ggml_tensor, ptr %23, i32 0, i32 12
  %25 = load ptr, ptr %24, align 8, !tbaa !261
  store ptr %25, ptr %11, align 8, !tbaa !262
  call void @llvm.lifetime.start.p0(i64 4, ptr %12) #23
  %26 = load ptr, ptr %11, align 8, !tbaa !262
  %27 = load ptr, ptr %7, align 8, !tbaa !4
  %28 = load ptr, ptr %8, align 8, !tbaa !9
  %29 = load i64, ptr %10, align 8, !tbaa !10
  %30 = load ptr, ptr %26, align 8, !tbaa !259
  %31 = getelementptr inbounds ptr, ptr %30, i64 4
  %32 = load ptr, ptr %31, align 8
  %33 = call noundef i32 %32(ptr noundef nonnull align 8 dereferenceable(8) %26, ptr noundef %27, ptr noundef %28, i64 noundef %29)
  store i32 %33, ptr %12, align 4, !tbaa !12
  %34 = load i32, ptr %12, align 4, !tbaa !12
  %35 = icmp eq i32 %34, 0
  br i1 %35, label %37, label %36

36:                                               ; preds = %22
  call void (ptr, i32, ptr, ...) @ggml_abort(ptr noundef @.str, i32 noundef 4152, ptr noundef @.str.1, ptr noundef @.str.38) #29
  unreachable

37:                                               ; preds = %22
  call void @llvm.lifetime.end.p0(i64 4, ptr %12) #23
  call void @llvm.lifetime.end.p0(i64 8, ptr %11) #23
  ret void
}