; Function Attrs: mustprogress uwtable
define internal void @_ZL42ggml_backend_cpu_aarch64_buffer_set_tensorP19ggml_backend_bufferP11ggml_tensorPKvmm(ptr readnone captures(none) %0, ptr noundef %1, ptr noundef %2, i64 noundef %3, i64 noundef %4) #0 {
  %6 = icmp eq i64 %3, 0
  br i1 %6, label %8, label %7

7:                                                ; preds = %5
  tail call void (ptr, i32, ptr, ...) @ggml_abort(ptr noundef nonnull @.str, i32 noundef 4146, ptr noundef nonnull @.str.1, ptr noundef nonnull @.str.36) #22
  unreachable

8:                                                ; preds = %5
  %9 = tail call i64 @ggml_nbytes(ptr noundef %1)
  %10 = icmp eq i64 %4, %9
  br i1 %10, label %12, label %11

11:                                               ; preds = %8
  tail call void (ptr, i32, ptr, ...) @ggml_abort(ptr noundef nonnull @.str, i32 noundef 4147, ptr noundef nonnull @.str.1, ptr noundef nonnull @.str.37) #22
  unreachable

12:                                               ; preds = %8
  %13 = getelementptr inbounds nuw i8, ptr %1, i64 320
  %14 = load ptr, ptr %13, align 8, !tbaa !405
  %15 = load ptr, ptr %14, align 8, !tbaa !395
  %16 = getelementptr inbounds nuw i8, ptr %15, i64 32
  %17 = load ptr, ptr %16, align 8
  %18 = tail call noundef i32 %17(ptr noundef nonnull align 8 dereferenceable(8) %14, ptr noundef %1, ptr noundef %2, i64 noundef %4)
  %19 = icmp eq i32 %18, 0
  br i1 %19, label %21, label %20

20:                                               ; preds = %12
  tail call void (ptr, i32, ptr, ...) @ggml_abort(ptr noundef nonnull @.str, i32 noundef 4152, ptr noundef nonnull @.str.1, ptr noundef nonnull @.str.38) #22
  unreachable

21:                                               ; preds = %12
  ret void
}